target datalayout = "e-m:e-p270:32:32-p271:32:32-p272:64:64-i64:64-i128:128-f80:128-n8:16:32:64-S128"
target triple = "x86_64-pc-linux-gnu"

%"class.LightGBM::GBDT" = type { %"class.LightGBM::GBDTBase", i32, ptr, %"class.std::unique_ptr", %"class.std::unique_ptr.2", ptr, %"class.std::unique_ptr.10", %"class.std::vector", %"class.std::vector.18", %"class.std::vector.23", i32, double, i8, %"class.std::vector.28", %"class.std::vector.33", %"class.std::vector.38", %"class.std::vector.43", i32, %"class.std::__cxx11::basic_string", i8, %"class.std::mutex", %"class.std::vector.51", %"class.std::vector.51", ptr, ptr, i8, i32, i32, i32, i32, i32, i32, double, i32, %"class.std::vector.53", %"class.std::vector.53", %"class.std::vector.58", i8, %"class.std::unique_ptr.62", i8, i8, i8, %"class.std::__cxx11::basic_string", %"class.std::vector.70", %"class.json11_internal_lightgbm::Json", i8, %"class.std::unique_ptr.75" }
%"class.LightGBM::GBDTBase" = type { %"class.LightGBM::Boosting" }
%"class.LightGBM::Boosting" = type { ptr }
%"class.std::unique_ptr" = type { %"struct.std::__uniq_ptr_data" }
%"struct.std::__uniq_ptr_data" = type { %"class.std::__uniq_ptr_impl" }
%"class.std::__uniq_ptr_impl" = type { %"class.std::tuple" }
%"class.std::tuple" = type { %"struct.std::_Tuple_impl" }
%"struct.std::_Tuple_impl" = type { %"struct.std::_Head_base.1" }
%"struct.std::_Head_base.1" = type { ptr }
%"class.std::unique_ptr.2" = type { %"struct.std::__uniq_ptr_data.3" }
%"struct.std::__uniq_ptr_data.3" = type { %"class.std::__uniq_ptr_impl.4" }
%"class.std::__uniq_ptr_impl.4" = type { %"class.std::tuple.5" }
%"class.std::tuple.5" = type { %"struct.std::_Tuple_impl.6" }
%"struct.std::_Tuple_impl.6" = type { %"struct.std::_Head_base.9" }
%"struct.std::_Head_base.9" = type { ptr }
%"class.std::unique_ptr.10" = type { %"struct.std::__uniq_ptr_data.11" }
%"struct.std::__uniq_ptr_data.11" = type { %"class.std::__uniq_ptr_impl.12" }
%"class.std::__uniq_ptr_impl.12" = type { %"class.std::tuple.13" }
%"class.std::tuple.13" = type { %"struct.std::_Tuple_impl.14" }
%"struct.std::_Tuple_impl.14" = type { %"struct.std::_Head_base.17" }
%"struct.std::_Head_base.17" = type { ptr }
%"class.std::vector" = type { %"struct.std::_Vector_base" }
%"struct.std::_Vector_base" = type { %"struct.std::_Vector_base<const LightGBM::Metric *, std::allocator<const LightGBM::Metric *>>::_Vector_impl" }
%"struct.std::_Vector_base<const LightGBM::Metric *, std::allocator<const LightGBM::Metric *>>::_Vector_impl" = type { %"struct.std::_Vector_base<const LightGBM::Metric *, std::allocator<const LightGBM::Metric *>>::_Vector_impl_data" }
%"struct.std::_Vector_base<const LightGBM::Metric *, std::allocator<const LightGBM::Metric *>>::_Vector_impl_data" = type { ptr, ptr, ptr }
%"class.std::vector.18" = type { %"struct.std::_Vector_base.19" }
%"struct.std::_Vector_base.19" = type { %"struct.std::_Vector_base<std::unique_ptr<LightGBM::ScoreUpdater>, std::allocator<std::unique_ptr<LightGBM::ScoreUpdater>>>::_Vector_impl" }
%"struct.std::_Vector_base<std::unique_ptr<LightGBM::ScoreUpdater>, std::allocator<std::unique_ptr<LightGBM::ScoreUpdater>>>::_Vector_impl" = type { %"struct.std::_Vector_base<std::unique_ptr<LightGBM::ScoreUpdater>, std::allocator<std::unique_ptr<LightGBM::ScoreUpdater>>>::_Vector_impl_data" }
%"struct.std::_Vector_base<std::unique_ptr<LightGBM::ScoreUpdater>, std::allocator<std::unique_ptr<LightGBM::ScoreUpdater>>>::_Vector_impl_data" = type { ptr, ptr, ptr }
%"class.std::vector.23" = type { %"struct.std::_Vector_base.24" }
%"struct.std::_Vector_base.24" = type { %"struct.std::_Vector_base<std::vector<const LightGBM::Metric *>, std::allocator<std::vector<const LightGBM::Metric *>>>::_Vector_impl" }
%"struct.std::_Vector_base<std::vector<const LightGBM::Metric *>, std::allocator<std::vector<const LightGBM::Metric *>>>::_Vector_impl" = type { %"struct.std::_Vector_base<std::vector<const LightGBM::Metric *>, std::allocator<std::vector<const LightGBM::Metric *>>>::_Vector_impl_data" }
%"struct.std::_Vector_base<std::vector<const LightGBM::Metric *>, std::allocator<std::vector<const LightGBM::Metric *>>>::_Vector_impl_data" = type { ptr, ptr, ptr }
%"class.std::vector.28" = type { %"struct.std::_Vector_base.29" }
%"struct.std::_Vector_base.29" = type { %"struct.std::_Vector_base<std::vector<int>, std::allocator<std::vector<int>>>::_Vector_impl" }
%"struct.std::_Vector_base<std::vector<int>, std::allocator<std::vector<int>>>::_Vector_impl" = type { %"struct.std::_Vector_base<std::vector<int>, std::allocator<std::vector<int>>>::_Vector_impl_data" }
%"struct.std::_Vector_base<std::vector<int>, std::allocator<std::vector<int>>>::_Vector_impl_data" = type { ptr, ptr, ptr }
%"class.std::vector.33" = type { %"struct.std::_Vector_base.34" }
%"struct.std::_Vector_base.34" = type { %"struct.std::_Vector_base<std::vector<double>, std::allocator<std::vector<double>>>::_Vector_impl" }
%"struct.std::_Vector_base<std::vector<double>, std::allocator<std::vector<double>>>::_Vector_impl" = type { %"struct.std::_Vector_base<std::vector<double>, std::allocator<std::vector<double>>>::_Vector_impl_data" }
%"struct.std::_Vector_base<std::vector<double>, std::allocator<std::vector<double>>>::_Vector_impl_data" = type { ptr, ptr, ptr }
%"class.std::vector.38" = type { %"struct.std::_Vector_base.39" }
%"struct.std::_Vector_base.39" = type { %"struct.std::_Vector_base<std::vector<std::__cxx11::basic_string<char>>, std::allocator<std::vector<std::__cxx11::basic_string<char>>>>::_Vector_impl" }
%"struct.std::_Vector_base<std::vector<std::__cxx11::basic_string<char>>, std::allocator<std::vector<std::__cxx11::basic_string<char>>>>::_Vector_impl" = type { %"struct.std::_Vector_base<std::vector<std::__cxx11::basic_string<char>>, std::allocator<std::vector<std::__cxx11::basic_string<char>>>>::_Vector_impl_data" }
%"struct.std::_Vector_base<std::vector<std::__cxx11::basic_string<char>>, std::allocator<std::vector<std::__cxx11::basic_string<char>>>>::_Vector_impl_data" = type { ptr, ptr, ptr }
%"class.std::vector.43" = type { %"struct.std::_Vector_base.44" }
%"struct.std::_Vector_base.44" = type { %"struct.std::_Vector_base<std::unique_ptr<LightGBM::Tree>, std::allocator<std::unique_ptr<LightGBM::Tree>>>::_Vector_impl" }
%"struct.std::_Vector_base<std::unique_ptr<LightGBM::Tree>, std::allocator<std::unique_ptr<LightGBM::Tree>>>::_Vector_impl" = type { %"struct.std::_Vector_base<std::unique_ptr<LightGBM::Tree>, std::allocator<std::unique_ptr<LightGBM::Tree>>>::_Vector_impl_data" }
%"struct.std::_Vector_base<std::unique_ptr<LightGBM::Tree>, std::allocator<std::unique_ptr<LightGBM::Tree>>>::_Vector_impl_data" = type { ptr, ptr, ptr }
%"class.std::mutex" = type { %"class.std::__mutex_base" }
%"class.std::__mutex_base" = type { %union.pthread_mutex_t }
%union.pthread_mutex_t = type { %struct.__pthread_mutex_s }
%struct.__pthread_mutex_s = type { i32, i32, i32, i32, i32, i16, i16, %struct.__pthread_internal_list }
%struct.__pthread_internal_list = type { ptr, ptr }
%"class.std::vector.51" = type { %"struct.std::_Vector_base.52" }
%"struct.std::_Vector_base.52" = type { %"struct.std::_Vector_base<float, LightGBM::Common::AlignmentAllocator<float>>::_Vector_impl" }
%"struct.std::_Vector_base<float, LightGBM::Common::AlignmentAllocator<float>>::_Vector_impl" = type { %"struct.std::_Vector_base<float, LightGBM::Common::AlignmentAllocator<float>>::_Vector_impl_data" }
%"struct.std::_Vector_base<float, LightGBM::Common::AlignmentAllocator<float>>::_Vector_impl_data" = type { ptr, ptr, ptr }
%"class.std::vector.53" = type { %"struct.std::_Vector_base.54" }
%"struct.std::_Vector_base.54" = type { %"struct.std::_Vector_base<std::__cxx11::basic_string<char>, std::allocator<std::__cxx11::basic_string<char>>>::_Vector_impl" }
%"struct.std::_Vector_base<std::__cxx11::basic_string<char>, std::allocator<std::__cxx11::basic_string<char>>>::_Vector_impl" = type { %"struct.std::_Vector_base<std::__cxx11::basic_string<char>, std::allocator<std::__cxx11::basic_string<char>>>::_Vector_impl_data" }
%"struct.std::_Vector_base<std::__cxx11::basic_string<char>, std::allocator<std::__cxx11::basic_string<char>>>::_Vector_impl_data" = type { ptr, ptr, ptr }
%"class.std::vector.58" = type { %"struct.std::_Bvector_base" }
%"struct.std::_Bvector_base" = type { %"struct.std::_Bvector_base<std::allocator<bool>>::_Bvector_impl" }
%"struct.std::_Bvector_base<std::allocator<bool>>::_Bvector_impl" = type { %"struct.std::_Bvector_base<std::allocator<bool>>::_Bvector_impl_data" }
%"struct.std::_Bvector_base<std::allocator<bool>>::_Bvector_impl_data" = type { %"struct.std::_Bit_iterator", %"struct.std::_Bit_iterator", ptr }
%"struct.std::_Bit_iterator" = type { %"struct.std::_Bit_iterator_base.base", [4 x i8] }
%"struct.std::_Bit_iterator_base.base" = type <{ ptr, i32 }>
%"class.std::unique_ptr.62" = type { %"struct.std::__uniq_ptr_data.63" }
%"struct.std::__uniq_ptr_data.63" = type { %"class.std::__uniq_ptr_impl.64" }
%"class.std::__uniq_ptr_impl.64" = type { %"class.std::tuple.65" }
%"class.std::tuple.65" = type { %"struct.std::_Tuple_impl.66" }
%"struct.std::_Tuple_impl.66" = type { %"struct.std::_Head_base.69" }
%"struct.std::_Head_base.69" = type { ptr }
%"class.std::__cxx11::basic_string" = type { %"struct.std::__cxx11::basic_string<char>::_Alloc_hider", i64, %union.anon }
%"struct.std::__cxx11::basic_string<char>::_Alloc_hider" = type { ptr }
%union.anon = type { i64, [8 x i8] }
%"class.std::vector.70" = type { %"struct.std::_Vector_base.71" }
%"struct.std::_Vector_base.71" = type { %"struct.std::_Vector_base<signed char, std::allocator<signed char>>::_Vector_impl" }
%"struct.std::_Vector_base<signed char, std::allocator<signed char>>::_Vector_impl" = type { %"struct.std::_Vector_base<signed char, std::allocator<signed char>>::_Vector_impl_data" }
%"struct.std::_Vector_base<signed char, std::allocator<signed char>>::_Vector_impl_data" = type { ptr, ptr, ptr }
%"class.json11_internal_lightgbm::Json" = type { %"class.std::shared_ptr" }
%"class.std::shared_ptr" = type { %"class.std::__shared_ptr" }
%"class.std::__shared_ptr" = type { ptr, %"class.std::__shared_count" }
%"class.std::__shared_count" = type { ptr }
%"class.std::unique_ptr.75" = type { %"struct.std::__uniq_ptr_data.76" }
%"struct.std::__uniq_ptr_data.76" = type { %"class.std::__uniq_ptr_impl.77" }
%"class.std::__uniq_ptr_impl.77" = type { %"class.std::tuple.78" }
%"class.std::tuple.78" = type { %"struct.std::_Tuple_impl.79" }
%"struct.std::_Tuple_impl.79" = type { %"struct.std::_Head_base.82" }
%"struct.std::_Head_base.82" = type { ptr }

; Function Attrs: mustprogress uwtable
define void @_ZNK8LightGBM4GBDT12PredictByMapERKSt13unordered_mapIidSt4hashIiESt8equal_toIiESaISt4pairIKidEEEPdPKNS_27PredictionEarlyStopInstanceE(ptr noundef nonnull align 8 dereferenceable(648) %0, ptr noundef nonnull align 8 dereferenceable(56) %1, ptr noundef %2, ptr noundef %3) unnamed_addr #4 align 2 {
  %5 = alloca ptr, align 8
  %6 = alloca ptr, align 8
  %7 = alloca ptr, align 8
  %8 = alloca ptr, align 8
  %9 = alloca i32, align 4
  store ptr %0, ptr %5, align 8, !tbaa !4
  store ptr %1, ptr %6, align 8, !tbaa !203
  store ptr %2, ptr %7, align 8, !tbaa !9
  store ptr %3, ptr %8, align 8, !tbaa !11
  %10 = load ptr, ptr %5, align 8
  %11 = load ptr, ptr %6, align 8, !tbaa !203
  %12 = load ptr, ptr %7, align 8, !tbaa !9
  %13 = load ptr, ptr %8, align 8, !tbaa !11
  %14 = load ptr, ptr %10, align 8, !tbaa !264
  %15 = getelementptr inbounds ptr, ptr %14, i64 19
  %16 = load ptr, ptr %15, align 8
  call void %16(ptr noundef nonnull align 8 dereferenceable(648) %10, ptr noundef nonnull align 8 dereferenceable(56) %11, ptr noundef %12, ptr noundef %13)
  %17 = getelementptr inbounds nuw %"class.LightGBM::GBDT", ptr %10, i32 0, i32 39
  %18 = load i8, ptr %17, align 8, !tbaa !266, !range !162, !noundef !163
  %19 = trunc i8 %18 to i1
  br i1 %19, label %20, label %41

20:                                               ; preds = %4
  call void @llvm.lifetime.start.p0(i64 4, ptr %9) #3
  store i32 0, ptr %9, align 4, !tbaa !13
  br label %21

21:                                               ; preds = %37, %20
  %22 = load i32, ptr %9, align 4, !tbaa !13
  %23 = getelementptr inbounds nuw %"class.LightGBM::GBDT", ptr %10, i32 0, i32 27
  %24 = load i32, ptr %23, align 8, !tbaa !15
  %25 = icmp slt i32 %22, %24
  br i1 %25, label %27, label %26

26:                                               ; preds = %21
  call void @llvm.lifetime.end.p0(i64 4, ptr %9) #3
  br label %40

27:                                               ; preds = %21
  %28 = getelementptr inbounds nuw %"class.LightGBM::GBDT", ptr %10, i32 0, i32 30
  %29 = load i32, ptr %28, align 4, !tbaa !127
  %30 = sitofp i32 %29 to double
  %31 = load ptr, ptr %7, align 8, !tbaa !9
  %32 = load i32, ptr %9, align 4, !tbaa !13
  %33 = sext i32 %32 to i64
  %34 = getelementptr inbounds double, ptr %31, i64 %33
  %35 = load double, ptr %34, align 8, !tbaa !128
  %36 = fdiv double %35, %30
  store double %36, ptr %34, align 8, !tbaa !128
  br label %37

37:                                               ; preds = %27
  %38 = load i32, ptr %9, align 4, !tbaa !13
  %39 = add nsw i32 %38, 1
  store i32 %39, ptr %9, align 4, !tbaa !13
  br label %21, !llvm.loop !269

40:                                               ; preds = %26
  br label %41

41:                                               ; preds = %40, %4
  %42 = getelementptr inbounds nuw %"class.LightGBM::GBDT", ptr %10, i32 0, i32 5
  %43 = load ptr, ptr %42, align 8, !tbaa !268
  %44 = icmp ne ptr %43, null
  br i1 %44, label %45, label %53

45:                                               ; preds = %41
  %46 = getelementptr inbounds nuw %"class.LightGBM::GBDT", ptr %10, i32 0, i32 5
  %47 = load ptr, ptr %46, align 8, !tbaa !268
  %48 = load ptr, ptr %7, align 8, !tbaa !9
  %49 = load ptr, ptr %7, align 8, !tbaa !9
  %50 = load ptr, ptr %47, align 8, !tbaa !264
  %51 = getelementptr inbounds ptr, ptr %50, i64 17
  %52 = load ptr, ptr %51, align 8
  call void %52(ptr noundef nonnull align 8 dereferenceable(8) %47, ptr noundef %48, ptr noundef %49)
  br label %53

53:                                               ; preds = %45, %41
  ret void
}