; Function Attrs: mustprogress uwtable
define void @_ZNK8LightGBM4GBDT12PredictByMapERKSt13unordered_mapIidSt4hashIiESt8equal_toIiESaISt4pairIKidEEEPdPKNS_27PredictionEarlyStopInstanceE(ptr noundef nonnull align 8 dereferenceable(648) %0, ptr noundef nonnull align 8 dereferenceable(56) %1, ptr noundef %2, ptr noundef %3) unnamed_addr #3 align 2 {
  %5 = load ptr, ptr %0, align 8, !tbaa !187
  %6 = getelementptr inbounds nuw i8, ptr %5, i64 152
  %7 = load ptr, ptr %6, align 8
  tail call void %7(ptr noundef nonnull align 8 dereferenceable(648) %0, ptr noundef nonnull align 8 dereferenceable(56) %1, ptr noundef %2, ptr noundef %3)
  %8 = getelementptr inbounds nuw i8, ptr %0, i64 552
  %9 = load i8, ptr %8, align 8, !tbaa !189, !range !148, !noundef !149
  %10 = trunc nuw i8 %9 to i1
  br i1 %10, label %.preheader, label %.loopexit

.preheader:                                       ; preds = %4
  %11 = getelementptr inbounds nuw i8, ptr %0, i64 408
  %12 = load i32, ptr %11, align 8, !tbaa !4
  %13 = icmp sgt i32 %12, 0
  br i1 %13, label %.lr.ph, label %.loopexit

.lr.ph:                                           ; preds = %.preheader
  %14 = getelementptr inbounds nuw i8, ptr %0, i64 420
  %15 = load i32, ptr %14, align 4, !tbaa !120
  %16 = sitofp i32 %15 to double
  %wide.trip.count = zext nneg i32 %12 to i64
  br label %17

17:                                               ; preds = %.lr.ph, %17
  %indvars.iv = phi i64 [ 0, %.lr.ph ], [ %indvars.iv.next, %17 ]
  %18 = getelementptr inbounds nuw double, ptr %2, i64 %indvars.iv
  %19 = load double, ptr %18, align 8, !tbaa !155
  %20 = fdiv double %19, %16
  store double %20, ptr %18, align 8, !tbaa !155
  %indvars.iv.next = add nuw nsw i64 %indvars.iv, 1
  %exitcond.not = icmp eq i64 %indvars.iv.next, %wide.trip.count
  br i1 %exitcond.not, label %.loopexit, label %17, !llvm.loop !192

.loopexit:                                        ; preds = %17, %.preheader, %4
  %21 = getelementptr inbounds nuw i8, ptr %0, i64 40
  %22 = load ptr, ptr %21, align 8, !tbaa !191
  %.not = icmp eq ptr %22, null
  br i1 %.not, label %27, label %23

23:                                               ; preds = %.loopexit
  %24 = load ptr, ptr %22, align 8, !tbaa !187
  %25 = getelementptr inbounds nuw i8, ptr %24, i64 136
  %26 = load ptr, ptr %25, align 8
  tail call void %26(ptr noundef nonnull align 8 dereferenceable(8) %22, ptr noundef %2, ptr noundef %2)
  br label %27

27:                                               ; preds = %23, %.loopexit
  ret void
}